; Function Attrs: mustprogress nounwind uwtable
define dso_local void @_ZN3net18QuicFixedTagVectorD2Ev(ptr nocapture noundef nonnull align 8 dereferenceable(73) %this) unnamed_addr #7 align 2 personality ptr @__gxx_personality_v0 {
entry:
  store ptr getelementptr inbounds ({ [6 x ptr] }, ptr @_ZTVN3net18QuicFixedTagVectorE, i64 0, i32 0, i64 2), ptr %this, align 8
  %receive_values_ = getelementptr inbounds i8, ptr %this, i64 48
  %0 = load ptr, ptr %receive_values_, align 8
  %tobool.not.i.i.i = icmp eq ptr %0, null
  br i1 %tobool.not.i.i.i, label %_ZNSt6vectorIjSaIjEED2Ev.exit, label %if.then.i.i.i

if.then.i.i.i:                                    ; preds = %entry
  tail call void @_ZdlPv(ptr noundef nonnull %0) #19
  br label %_ZNSt6vectorIjSaIjEED2Ev.exit

_ZNSt6vectorIjSaIjEED2Ev.exit:                    ; preds = %entry, %if.then.i.i.i
  %send_values_ = getelementptr inbounds i8, ptr %this, i64 16
  %1 = load ptr, ptr %send_values_, align 8
  %tobool.not.i.i.i1 = icmp eq ptr %1, null
  br i1 %tobool.not.i.i.i1, label %_ZNSt6vectorIjSaIjEED2Ev.exit3, label %if.then.i.i.i2

if.then.i.i.i2:                                   ; preds = %_ZNSt6vectorIjSaIjEED2Ev.exit
  tail call void @_ZdlPv(ptr noundef nonnull %1) #19
  br label %_ZNSt6vectorIjSaIjEED2Ev.exit3

_ZNSt6vectorIjSaIjEED2Ev.exit3:                   ; preds = %_ZNSt6vectorIjSaIjEED2Ev.exit, %if.then.i.i.i2
  ret void
}